target datalayout = "e-m:e-p270:32:32-p271:32:32-p272:64:64-i64:64-i128:128-f80:128-n8:16:32:64-S128"
target triple = "x86_64-pc-linux-gnu"

%struct.gs_part = type { ptr, i16, i32, ptr, i32, i32, ptr, i32, i32, ptr, ptr, i16, ptr }

@.str.6 = private unnamed_addr constant [7 x i8] c"gang.c\00", align 1
@gs_part_list = internal global ptr null, align 8
@default_job_list_size = internal global i32 64, align 4
@__func__._cast_shadow = private unnamed_addr constant [13 x i8] c"_cast_shadow\00", align 1

; Function Attrs: nounwind uwtable
define internal void @_cast_shadow(ptr noundef %0, i16 noundef zeroext %1) #0 {
  %3 = alloca ptr, align 8
  %4 = alloca i16, align 2
  %5 = alloca ptr, align 8
  %6 = alloca ptr, align 8
  %7 = alloca i32, align 4
  store ptr %0, ptr %3, align 8
  store i16 %1, ptr %4, align 2
  call void @llvm.lifetime.start.p0(i64 8, ptr %5) #8
  call void @llvm.lifetime.start.p0(i64 8, ptr %6) #8
  call void @llvm.lifetime.start.p0(i64 4, ptr %7) #8
  %8 = load ptr, ptr @gs_part_list, align 8
  %9 = call ptr @list_iterator_create(ptr noundef %8)
  store ptr %9, ptr %5, align 8
  br label %10

10:                                               ; preds = %92, %68, %22, %2
  %11 = load ptr, ptr %5, align 8
  %12 = call ptr @list_next(ptr noundef %11)
  store ptr %12, ptr %6, align 8
  %13 = icmp ne ptr %12, null
  br i1 %13, label %14, label %103

14:                                               ; preds = %10
  %15 = load ptr, ptr %6, align 8
  %16 = getelementptr inbounds nuw %struct.gs_part, ptr %15, i32 0, i32 1
  %17 = load i16, ptr %16, align 8
  %18 = zext i16 %17 to i32
  %19 = load i16, ptr %4, align 2
  %20 = zext i16 %19 to i32
  %21 = icmp sge i32 %18, %20
  br i1 %21, label %22, label %23

22:                                               ; preds = %14
  br label %10, !llvm.loop !37

23:                                               ; preds = %14
  %24 = load ptr, ptr %6, align 8
  %25 = getelementptr inbounds nuw %struct.gs_part, ptr %24, i32 0, i32 6
  %26 = load ptr, ptr %25, align 8
  %27 = icmp ne ptr %26, null
  br i1 %27, label %40, label %28

28:                                               ; preds = %23
  %29 = load i32, ptr @default_job_list_size, align 4
  %30 = load ptr, ptr %6, align 8
  %31 = getelementptr inbounds nuw %struct.gs_part, ptr %30, i32 0, i32 7
  store i32 %29, ptr %31, align 8
  %32 = load ptr, ptr %6, align 8
  %33 = getelementptr inbounds nuw %struct.gs_part, ptr %32, i32 0, i32 7
  %34 = load i32, ptr %33, align 8
  %35 = zext i32 %34 to i64
  %36 = mul i64 %35, 8
  %37 = call ptr @slurm_xcalloc(i64 noundef 1, i64 noundef %36, i1 noundef zeroext true, i1 noundef zeroext false, ptr noundef @.str.6, i32 noundef 636, ptr noundef @__func__._cast_shadow)
  %38 = load ptr, ptr %6, align 8
  %39 = getelementptr inbounds nuw %struct.gs_part, ptr %38, i32 0, i32 6
  store ptr %37, ptr %39, align 8
  br label %70

40:                                               ; preds = %23
  store i32 0, ptr %7, align 4
  br label %41

41:                                               ; preds = %59, %40
  %42 = load i32, ptr %7, align 4
  %43 = load ptr, ptr %6, align 8
  %44 = getelementptr inbounds nuw %struct.gs_part, ptr %43, i32 0, i32 5
  %45 = load i32, ptr %44, align 4
  %46 = icmp ult i32 %42, %45
  br i1 %46, label %47, label %62

47:                                               ; preds = %41
  %48 = load ptr, ptr %6, align 8
  %49 = getelementptr inbounds nuw %struct.gs_part, ptr %48, i32 0, i32 6
  %50 = load ptr, ptr %49, align 8
  %51 = load i32, ptr %7, align 4
  %52 = sext i32 %51 to i64
  %53 = getelementptr inbounds ptr, ptr %50, i64 %52
  %54 = load ptr, ptr %53, align 8
  %55 = load ptr, ptr %3, align 8
  %56 = icmp eq ptr %54, %55
  br i1 %56, label %57, label %58

57:                                               ; preds = %47
  br label %62

58:                                               ; preds = %47
  br label %59

59:                                               ; preds = %58
  %60 = load i32, ptr %7, align 4
  %61 = add nsw i32 %60, 1
  store i32 %61, ptr %7, align 4
  br label %41, !llvm.loop !38

62:                                               ; preds = %57, %41
  %63 = load i32, ptr %7, align 4
  %64 = load ptr, ptr %6, align 8
  %65 = getelementptr inbounds nuw %struct.gs_part, ptr %64, i32 0, i32 5
  %66 = load i32, ptr %65, align 4
  %67 = icmp ult i32 %63, %66
  br i1 %67, label %68, label %69

68:                                               ; preds = %62
  br label %10, !llvm.loop !37

69:                                               ; preds = %62
  br label %70

70:                                               ; preds = %69, %28
  %71 = load ptr, ptr %6, align 8
  %72 = getelementptr inbounds nuw %struct.gs_part, ptr %71, i32 0, i32 5
  %73 = load i32, ptr %72, align 4
  %74 = add i32 %73, 1
  %75 = load ptr, ptr %6, align 8
  %76 = getelementptr inbounds nuw %struct.gs_part, ptr %75, i32 0, i32 7
  %77 = load i32, ptr %76, align 8
  %78 = icmp uge i32 %74, %77
  br i1 %78, label %79, label %92

79:                                               ; preds = %70
  %80 = load ptr, ptr %6, align 8
  %81 = getelementptr inbounds nuw %struct.gs_part, ptr %80, i32 0, i32 7
  %82 = load i32, ptr %81, align 8
  %83 = mul i32 %82, 2
  store i32 %83, ptr %81, align 8
  %84 = load ptr, ptr %6, align 8
  %85 = getelementptr inbounds nuw %struct.gs_part, ptr %84, i32 0, i32 6
  %86 = load ptr, ptr %6, align 8
  %87 = getelementptr inbounds nuw %struct.gs_part, ptr %86, i32 0, i32 7
  %88 = load i32, ptr %87, align 8
  %89 = zext i32 %88 to i64
  %90 = mul i64 %89, 8
  %91 = call ptr @slurm_xrecalloc(ptr noundef %85, i64 noundef 1, i64 noundef %90, i1 noundef zeroext true, i1 noundef zeroext false, ptr noundef @.str.6, i32 noundef 651, ptr noundef @__func__._cast_shadow)
  br label %92

92:                                               ; preds = %79, %70
  %93 = load ptr, ptr %3, align 8
  %94 = load ptr, ptr %6, align 8
  %95 = getelementptr inbounds nuw %struct.gs_part, ptr %94, i32 0, i32 6
  %96 = load ptr, ptr %95, align 8
  %97 = load ptr, ptr %6, align 8
  %98 = getelementptr inbounds nuw %struct.gs_part, ptr %97, i32 0, i32 5
  %99 = load i32, ptr %98, align 4
  %100 = add i32 %99, 1
  store i32 %100, ptr %98, align 4
  %101 = zext i32 %99 to i64
  %102 = getelementptr inbounds nuw ptr, ptr %96, i64 %101
  store ptr %93, ptr %102, align 8
  br label %10, !llvm.loop !37

103:                                              ; preds = %10
  %104 = load ptr, ptr %5, align 8
  call void @list_iterator_destroy(ptr noundef %104)
  call void @llvm.lifetime.end.p0(i64 4, ptr %7) #8
  call void @llvm.lifetime.end.p0(i64 8, ptr %6) #8
  call void @llvm.lifetime.end.p0(i64 8, ptr %5) #8
  ret void
}