; Function Attrs: nounwind uwtable
define internal fastcc void @_cast_shadow(ptr noundef %0, i16 noundef zeroext %1) unnamed_addr #0 {
  %3 = load ptr, ptr @gs_part_list, align 8
  %4 = tail call ptr @list_iterator_create(ptr noundef %3) #8
  %5 = tail call ptr @list_next(ptr noundef %4) #8
  %.not29 = icmp eq ptr %5, null
  br i1 %.not29, label %._crit_edge, label %.lr.ph30

.lr.ph30:                                         ; preds = %2, %.backedge
  %6 = phi ptr [ %38, %.backedge ], [ %5, %2 ]
  %7 = getelementptr inbounds nuw i8, ptr %6, i64 8
  %8 = load i16, ptr %7, align 8
  %.not25 = icmp ult i16 %8, %1
  br i1 %.not25, label %9, label %.backedge

9:                                                ; preds = %.lr.ph30
  %10 = getelementptr inbounds nuw i8, ptr %6, i64 32
  %11 = load ptr, ptr %10, align 8
  %.not26 = icmp eq ptr %11, null
  br i1 %.not26, label %14, label %.preheader

.preheader:                                       ; preds = %9
  %12 = getelementptr inbounds nuw i8, ptr %6, i64 28
  %13 = load i32, ptr %12, align 4
  %.not31 = icmp eq i32 %13, 0
  br i1 %.not31, label %.thread, label %.lr.ph.preheader

.lr.ph.preheader:                                 ; preds = %.preheader
  %wide.trip.count = zext i32 %13 to i64
  br label %.lr.ph

14:                                               ; preds = %9
  %15 = getelementptr inbounds nuw i8, ptr %6, i64 40
  store i32 64, ptr %15, align 8
  %16 = tail call ptr @slurm_xcalloc(i64 noundef 1, i64 noundef 512, i1 noundef zeroext true, i1 noundef zeroext false, ptr noundef nonnull @.str.6, i32 noundef 636, ptr noundef nonnull @__func__._cast_shadow) #8
  store ptr %16, ptr %10, align 8
  %.phi.trans.insert = getelementptr inbounds nuw i8, ptr %6, i64 28
  %.pre = load i32, ptr %.phi.trans.insert, align 4
  br label %.thread

17:                                               ; preds = %.lr.ph
  %indvars.iv.next = add nuw nsw i64 %indvars.iv, 1
  %exitcond.not = icmp eq i64 %indvars.iv.next, %wide.trip.count
  br i1 %exitcond.not, label %.thread, label %.lr.ph, !llvm.loop !30

.lr.ph:                                           ; preds = %.lr.ph.preheader, %17
  %indvars.iv = phi i64 [ 0, %.lr.ph.preheader ], [ %indvars.iv.next, %17 ]
  %18 = getelementptr inbounds nuw ptr, ptr %11, i64 %indvars.iv
  %19 = load ptr, ptr %18, align 8
  %20 = icmp eq ptr %19, %0
  br i1 %20, label %.backedge, label %17

.thread:                                          ; preds = %17, %.preheader, %14
  %21 = phi ptr [ %11, %.preheader ], [ %16, %14 ], [ %11, %17 ]
  %22 = phi i32 [ 0, %.preheader ], [ %.pre, %14 ], [ %13, %17 ]
  %23 = getelementptr inbounds nuw i8, ptr %6, i64 28
  %24 = add i32 %22, 1
  %25 = getelementptr inbounds nuw i8, ptr %6, i64 40
  %26 = load i32, ptr %25, align 8
  %.not27 = icmp ult i32 %24, %26
  br i1 %.not27, label %32, label %27

27:                                               ; preds = %.thread
  %28 = shl i32 %26, 1
  store i32 %28, ptr %25, align 8
  %29 = zext i32 %28 to i64
  %30 = shl nuw nsw i64 %29, 3
  %31 = tail call ptr @slurm_xrecalloc(ptr noundef nonnull %10, i64 noundef 1, i64 noundef %30, i1 noundef zeroext true, i1 noundef zeroext false, ptr noundef nonnull @.str.6, i32 noundef 651, ptr noundef nonnull @__func__._cast_shadow) #8
  %.pre33 = load ptr, ptr %10, align 8
  br label %32

32:                                               ; preds = %27, %.thread
  %33 = phi ptr [ %.pre33, %27 ], [ %21, %.thread ]
  %34 = load i32, ptr %23, align 4
  %35 = add i32 %34, 1
  store i32 %35, ptr %23, align 4
  %36 = zext i32 %34 to i64
  %37 = getelementptr inbounds nuw ptr, ptr %33, i64 %36
  store ptr %0, ptr %37, align 8
  br label %.backedge

.backedge:                                        ; preds = %.lr.ph, %32, %.lr.ph30
  %38 = tail call ptr @list_next(ptr noundef %4) #8
  %.not = icmp eq ptr %38, null
  br i1 %.not, label %._crit_edge, label %.lr.ph30, !llvm.loop !31

._crit_edge:                                      ; preds = %.backedge, %2
  tail call void @list_iterator_destroy(ptr noundef %4) #8
  ret void
}